target datalayout = "e-m:e-p270:32:32-p271:32:32-p272:64:64-i64:64-i128:128-f80:128-n8:16:32:64-S128"
target triple = "x86_64-pc-linux-gnu"

; Function Attrs: nounwind uwtable
define internal i32 @_asn1_check_infinite_end(ptr noundef %0, i64 noundef %1) #0 {
  %3 = alloca i32, align 4
  %4 = alloca ptr, align 8
  %5 = alloca i64, align 8
  store ptr %0, ptr %4, align 8, !tbaa !3
  store i64 %1, ptr %5, align 8, !tbaa !8
  %6 = load i64, ptr %5, align 8, !tbaa !8
  %7 = icmp sle i64 %6, 0
  br i1 %7, label %8, label %9

8:                                                ; preds = %2
  store i32 1, ptr %3, align 4
  br label %32

9:                                                ; preds = %2
  %10 = load i64, ptr %5, align 8, !tbaa !8
  %11 = icmp sge i64 %10, 2
  br i1 %11, label %12, label %30

12:                                               ; preds = %9
  %13 = load ptr, ptr %4, align 8, !tbaa !3
  %14 = load ptr, ptr %13, align 8, !tbaa !10
  %15 = getelementptr inbounds i8, ptr %14, i64 0
  %16 = load i8, ptr %15, align 1, !tbaa !12
  %17 = zext i8 %16 to i32
  %18 = icmp eq i32 %17, 0
  br i1 %18, label %19, label %30

19:                                               ; preds = %12
  %20 = load ptr, ptr %4, align 8, !tbaa !3
  %21 = load ptr, ptr %20, align 8, !tbaa !10
  %22 = getelementptr inbounds i8, ptr %21, i64 1
  %23 = load i8, ptr %22, align 1, !tbaa !12
  %24 = zext i8 %23 to i32
  %25 = icmp eq i32 %24, 0
  br i1 %25, label %26, label %30

26:                                               ; preds = %19
  %27 = load ptr, ptr %4, align 8, !tbaa !3
  %28 = load ptr, ptr %27, align 8, !tbaa !10
  %29 = getelementptr inbounds i8, ptr %28, i64 2
  store ptr %29, ptr %27, align 8, !tbaa !10
  store i32 1, ptr %3, align 4
  br label %32

30:                                               ; preds = %19, %12, %9
  br label %31

31:                                               ; preds = %30
  store i32 0, ptr %3, align 4
  br label %32

32:                                               ; preds = %31, %26, %8
  %33 = load i32, ptr %3, align 4
  ret i32 %33
}

; Function Attrs: nounwind uwtable
define i32 @ASN1_check_infinite_end(ptr noundef %0, i64 noundef %1) #0 {
  %3 = alloca ptr, align 8
  %4 = alloca i64, align 8
  store ptr %0, ptr %3, align 8, !tbaa !3
  store i64 %1, ptr %4, align 8, !tbaa !8
  %5 = load ptr, ptr %3, align 8, !tbaa !3
  %6 = load i64, ptr %4, align 8, !tbaa !8
  %7 = call i32 @_asn1_check_infinite_end(ptr noundef %5, i64 noundef %6)
  ret i32 %7
}